target datalayout = "e-m:e-p270:32:32-p271:32:32-p272:64:64-i64:64-i128:128-f80:128-n8:16:32:64-S128"
target triple = "x86_64-pc-linux-gnu"

%struct.MvcCubeStruct = type { ptr, i32, i32, [1 x i32] }
%struct.MvcCoverStruct = type { i32, i32, i32, %struct.MvcListStruct, ptr, i32, ptr, ptr, ptr }
%struct.MvcListStruct = type { ptr, ptr, i32 }

; Function Attrs: nounwind uwtable
define i32 @Mvc_CoverIsCubeFree(ptr noundef %0) #0 {
  %2 = alloca ptr, align 8
  %3 = alloca i32, align 4
  %4 = alloca i32, align 4
  store ptr %0, ptr %2, align 8, !tbaa !3
  call void @llvm.lifetime.start.p0(i64 4, ptr %3) #3
  %5 = load ptr, ptr %2, align 8, !tbaa !3
  call void @Mvc_CoverAllocateMask(ptr noundef %5)
  %6 = load ptr, ptr %2, align 8, !tbaa !3
  %7 = load ptr, ptr %2, align 8, !tbaa !3
  %8 = getelementptr inbounds nuw %struct.MvcCoverStruct, ptr %7, i32 0, i32 7
  %9 = load ptr, ptr %8, align 8, !tbaa !32
  call void @Mvc_CoverCommonCube(ptr noundef %6, ptr noundef %9)
  %10 = load ptr, ptr %2, align 8, !tbaa !3
  %11 = getelementptr inbounds nuw %struct.MvcCoverStruct, ptr %10, i32 0, i32 7
  %12 = load ptr, ptr %11, align 8, !tbaa !32
  %13 = getelementptr inbounds nuw %struct.MvcCubeStruct, ptr %12, i32 0, i32 1
  %14 = load i32, ptr %13, align 8
  %15 = and i32 %14, 16777215
  %16 = icmp eq i32 %15, 0
  br i1 %16, label %17, label %26

17:                                               ; preds = %1
  %18 = load ptr, ptr %2, align 8, !tbaa !3
  %19 = getelementptr inbounds nuw %struct.MvcCoverStruct, ptr %18, i32 0, i32 7
  %20 = load ptr, ptr %19, align 8, !tbaa !32
  %21 = getelementptr inbounds nuw %struct.MvcCubeStruct, ptr %20, i32 0, i32 3
  %22 = getelementptr inbounds [1 x i32], ptr %21, i64 0, i64 0
  %23 = load i32, ptr %22, align 8, !tbaa !10
  %24 = icmp eq i32 %23, 0
  %25 = zext i1 %24 to i32
  store i32 %25, ptr %3, align 4, !tbaa !10
  br label %80

26:                                               ; preds = %1
  %27 = load ptr, ptr %2, align 8, !tbaa !3
  %28 = getelementptr inbounds nuw %struct.MvcCoverStruct, ptr %27, i32 0, i32 7
  %29 = load ptr, ptr %28, align 8, !tbaa !32
  %30 = getelementptr inbounds nuw %struct.MvcCubeStruct, ptr %29, i32 0, i32 1
  %31 = load i32, ptr %30, align 8
  %32 = and i32 %31, 16777215
  %33 = icmp eq i32 %32, 1
  br i1 %33, label %34, label %53

34:                                               ; preds = %26
  %35 = load ptr, ptr %2, align 8, !tbaa !3
  %36 = getelementptr inbounds nuw %struct.MvcCoverStruct, ptr %35, i32 0, i32 7
  %37 = load ptr, ptr %36, align 8, !tbaa !32
  %38 = getelementptr inbounds nuw %struct.MvcCubeStruct, ptr %37, i32 0, i32 3
  %39 = getelementptr inbounds [1 x i32], ptr %38, i64 0, i64 0
  %40 = load i32, ptr %39, align 8, !tbaa !10
  %41 = icmp eq i32 %40, 0
  br i1 %41, label %42, label %50

42:                                               ; preds = %34
  %43 = load ptr, ptr %2, align 8, !tbaa !3
  %44 = getelementptr inbounds nuw %struct.MvcCoverStruct, ptr %43, i32 0, i32 7
  %45 = load ptr, ptr %44, align 8, !tbaa !32
  %46 = getelementptr inbounds nuw %struct.MvcCubeStruct, ptr %45, i32 0, i32 3
  %47 = getelementptr inbounds [1 x i32], ptr %46, i64 0, i64 1
  %48 = load i32, ptr %47, align 4, !tbaa !10
  %49 = icmp eq i32 %48, 0
  br label %50

50:                                               ; preds = %42, %34
  %51 = phi i1 [ false, %34 ], [ %49, %42 ]
  %52 = zext i1 %51 to i32
  store i32 %52, ptr %3, align 4, !tbaa !10
  br label %79

53:                                               ; preds = %26
  call void @llvm.lifetime.start.p0(i64 4, ptr %4) #3
  store i32 1, ptr %3, align 4, !tbaa !10
  %54 = load ptr, ptr %2, align 8, !tbaa !3
  %55 = getelementptr inbounds nuw %struct.MvcCoverStruct, ptr %54, i32 0, i32 7
  %56 = load ptr, ptr %55, align 8, !tbaa !32
  %57 = getelementptr inbounds nuw %struct.MvcCubeStruct, ptr %56, i32 0, i32 1
  %58 = load i32, ptr %57, align 8
  %59 = and i32 %58, 16777215
  store i32 %59, ptr %4, align 4, !tbaa !10
  br label %60

60:                                               ; preds = %75, %53
  %61 = load i32, ptr %4, align 4, !tbaa !10
  %62 = icmp sge i32 %61, 0
  br i1 %62, label %63, label %78

63:                                               ; preds = %60
  %64 = load ptr, ptr %2, align 8, !tbaa !3
  %65 = getelementptr inbounds nuw %struct.MvcCoverStruct, ptr %64, i32 0, i32 7
  %66 = load ptr, ptr %65, align 8, !tbaa !32
  %67 = getelementptr inbounds nuw %struct.MvcCubeStruct, ptr %66, i32 0, i32 3
  %68 = load i32, ptr %4, align 4, !tbaa !10
  %69 = sext i32 %68 to i64
  %70 = getelementptr inbounds [1 x i32], ptr %67, i64 0, i64 %69
  %71 = load i32, ptr %70, align 4, !tbaa !10
  %72 = icmp ne i32 %71, 0
  br i1 %72, label %73, label %74

73:                                               ; preds = %63
  store i32 0, ptr %3, align 4, !tbaa !10
  br label %78

74:                                               ; preds = %63
  br label %75

75:                                               ; preds = %74
  %76 = load i32, ptr %4, align 4, !tbaa !10
  %77 = add nsw i32 %76, -1
  store i32 %77, ptr %4, align 4, !tbaa !10
  br label %60, !llvm.loop !33

78:                                               ; preds = %73, %60
  call void @llvm.lifetime.end.p0(i64 4, ptr %4) #3
  br label %79

79:                                               ; preds = %78, %50
  br label %80

80:                                               ; preds = %79, %17
  %81 = load i32, ptr %3, align 4, !tbaa !10
  call void @llvm.lifetime.end.p0(i64 4, ptr %3) #3
  ret i32 %81
}