; Function Attrs: nounwind uwtable
define range(i32 0, 2) i32 @Mvc_CoverIsCubeFree(ptr noundef %0) local_unnamed_addr #1 {
  tail call void @Mvc_CoverAllocateMask(ptr noundef %0) #6
  %2 = getelementptr inbounds nuw i8, ptr %0, i64 64
  %3 = load ptr, ptr %2, align 8, !tbaa !24
  tail call void @Mvc_CoverCommonCube(ptr noundef %0, ptr noundef %3)
  %4 = load ptr, ptr %2, align 8, !tbaa !24
  %5 = getelementptr inbounds nuw i8, ptr %4, i64 8
  %6 = load i32, ptr %5, align 8
  %7 = and i32 %6, 16777215
  %8 = getelementptr inbounds nuw i8, ptr %4, i64 16
  switch i32 %7, label %.preheader [
    i32 0, label %9
    i32 1, label %12
  ]

9:                                                ; preds = %1
  %10 = load i32, ptr %8, align 8, !tbaa !3
  %11 = icmp eq i32 %10, 0
  br label %.loopexit

12:                                               ; preds = %1
  %13 = load i32, ptr %8, align 8, !tbaa !3
  %14 = icmp eq i32 %13, 0
  br i1 %14, label %15, label %.loopexit

15:                                               ; preds = %12
  %16 = getelementptr inbounds nuw i8, ptr %4, i64 20
  %17 = load i32, ptr %16, align 4, !tbaa !3
  %18 = icmp eq i32 %17, 0
  br label %.loopexit

.preheader:                                       ; preds = %1, %.preheader
  %.015 = phi i32 [ %22, %.preheader ], [ %7, %1 ]
  %19 = zext nneg i32 %.015 to i64
  %20 = getelementptr inbounds nuw [1 x i32], ptr %8, i64 0, i64 %19
  %21 = load i32, ptr %20, align 4, !tbaa !3
  %.not = icmp eq i32 %21, 0
  %22 = add nsw i32 %.015, -1
  %23 = icmp sgt i32 %.015, 0
  %or.cond = and i1 %.not, %23
  br i1 %or.cond, label %.preheader, label %.loopexit, !llvm.loop !25

.loopexit:                                        ; preds = %.preheader, %12, %15, %9
  %.013.shrunk = phi i1 [ %11, %9 ], [ false, %12 ], [ %18, %15 ], [ %.not, %.preheader ]
  %.013 = zext i1 %.013.shrunk to i32
  ret i32 %.013
}